target datalayout = "e-m:e-p270:32:32-p271:32:32-p272:64:64-i64:64-i128:128-f80:128-n8:16:32:64-S128"
target triple = "x86_64-pc-linux-gnu"

%struct.evp_pkey_ctx_st = type { i32, ptr, ptr, ptr, ptr, %union.anon, %struct.anon.4, ptr, ptr, ptr, i32, i32, ptr, ptr, ptr, ptr, ptr, i8, ptr }
%union.anon = type { %struct.anon.0 }
%struct.anon.0 = type { ptr, ptr }
%struct.anon.4 = type { ptr, ptr, i64, i8 }
%struct.ossl_param_st = type { ptr, i32, ptr, i64, i64 }

; Function Attrs: nounwind uwtable
define i32 @evp_pkey_ctx_get_params_strict(ptr noundef %0, ptr noundef %1) #0 {
  %3 = alloca i32, align 4
  %4 = alloca ptr, align 8
  %5 = alloca ptr, align 8
  %6 = alloca ptr, align 8
  %7 = alloca ptr, align 8
  %8 = alloca i32, align 4
  store ptr %0, ptr %4, align 8, !tbaa !18
  store ptr %1, ptr %5, align 8, !tbaa !78
  %9 = load ptr, ptr %4, align 8, !tbaa !18
  %10 = icmp eq ptr %9, null
  br i1 %10, label %14, label %11

11:                                               ; preds = %2
  %12 = load ptr, ptr %5, align 8, !tbaa !78
  %13 = icmp eq ptr %12, null
  br i1 %13, label %14, label %15

14:                                               ; preds = %11, %2
  store i32 0, ptr %3, align 4
  br label %49

15:                                               ; preds = %11
  %16 = load ptr, ptr %4, align 8, !tbaa !18
  %17 = getelementptr inbounds nuw %struct.evp_pkey_ctx_st, ptr %16, i32 0, i32 4
  %18 = load ptr, ptr %17, align 8, !tbaa !52
  %19 = icmp eq ptr %18, null
  br i1 %19, label %45, label %20

20:                                               ; preds = %15
  call void @llvm.lifetime.start.p0(i64 8, ptr %6) #8
  %21 = load ptr, ptr %4, align 8, !tbaa !18
  %22 = call ptr @EVP_PKEY_CTX_gettable_params(ptr noundef %21)
  store ptr %22, ptr %6, align 8, !tbaa !78
  call void @llvm.lifetime.start.p0(i64 8, ptr %7) #8
  %23 = load ptr, ptr %5, align 8, !tbaa !78
  store ptr %23, ptr %7, align 8, !tbaa !78
  br label %24

24:                                               ; preds = %38, %20
  %25 = load ptr, ptr %7, align 8, !tbaa !78
  %26 = getelementptr inbounds nuw %struct.ossl_param_st, ptr %25, i32 0, i32 0
  %27 = load ptr, ptr %26, align 8, !tbaa !101
  %28 = icmp ne ptr %27, null
  br i1 %28, label %29, label %41

29:                                               ; preds = %24
  %30 = load ptr, ptr %6, align 8, !tbaa !78
  %31 = load ptr, ptr %7, align 8, !tbaa !78
  %32 = getelementptr inbounds nuw %struct.ossl_param_st, ptr %31, i32 0, i32 0
  %33 = load ptr, ptr %32, align 8, !tbaa !101
  %34 = call ptr @OSSL_PARAM_locate_const(ptr noundef %30, ptr noundef %33)
  %35 = icmp eq ptr %34, null
  br i1 %35, label %36, label %37

36:                                               ; preds = %29
  store i32 -2, ptr %3, align 4
  store i32 1, ptr %8, align 4
  br label %42

37:                                               ; preds = %29
  br label %38

38:                                               ; preds = %37
  %39 = load ptr, ptr %7, align 8, !tbaa !78
  %40 = getelementptr inbounds nuw %struct.ossl_param_st, ptr %39, i32 1
  store ptr %40, ptr %7, align 8, !tbaa !78
  br label %24, !llvm.loop !105

41:                                               ; preds = %24
  store i32 0, ptr %8, align 4
  br label %42

42:                                               ; preds = %41, %36
  call void @llvm.lifetime.end.p0(i64 8, ptr %7) #8
  call void @llvm.lifetime.end.p0(i64 8, ptr %6) #8
  %43 = load i32, ptr %8, align 4
  switch i32 %43, label %51 [
    i32 0, label %44
    i32 1, label %49
  ]

44:                                               ; preds = %42
  br label %45

45:                                               ; preds = %44, %15
  %46 = load ptr, ptr %4, align 8, !tbaa !18
  %47 = load ptr, ptr %5, align 8, !tbaa !78
  %48 = call i32 @EVP_PKEY_CTX_get_params(ptr noundef %46, ptr noundef %47)
  store i32 %48, ptr %3, align 4
  br label %49

49:                                               ; preds = %45, %42, %14
  %50 = load i32, ptr %3, align 4
  ret i32 %50

51:                                               ; preds = %42
  unreachable
}